target datalayout = "e-m:e-p270:32:32-p271:32:32-p272:64:64-i64:64-i128:128-f80:128-n8:16:32:64-S128"
target triple = "x86_64-pc-linux-gnu"

; Function Attrs: inlinehint nounwind uwtable
define internal i64 @xgetbv(i32 noundef %0) #1 {
  %2 = alloca i32, align 4
  %3 = alloca i32, align 4
  %4 = alloca i32, align 4
  store i32 %0, ptr %2, align 4
  call void @llvm.lifetime.start.p0(i64 4, ptr %3) #4
  call void @llvm.lifetime.start.p0(i64 4, ptr %4) #4
  %5 = load i32, ptr %2, align 4
  %6 = call { i32, i32 } asm sideeffect "xgetbv\0A", "={ax},={dx},{cx},~{dirflag},~{fpsr},~{flags}"(i32 %5) #4, !srcloc !6
  %7 = extractvalue { i32, i32 } %6, 0
  %8 = extractvalue { i32, i32 } %6, 1
  store i32 %7, ptr %3, align 4
  store i32 %8, ptr %4, align 4
  %9 = load i32, ptr %4, align 4
  %10 = zext i32 %9 to i64
  %11 = shl i64 %10, 32
  %12 = load i32, ptr %3, align 4
  %13 = zext i32 %12 to i64
  %14 = add i64 %11, %13
  call void @llvm.lifetime.end.p0(i64 4, ptr %4) #4
  call void @llvm.lifetime.end.p0(i64 4, ptr %3) #4
  ret i64 %14
}