; Function Attrs: inlinehint nounwind uwtable
define internal fastcc i64 @xgetbv() unnamed_addr #1 {
  %1 = tail call { i32, i32 } asm sideeffect "xgetbv\0A", "={ax},={dx},{cx},~{dirflag},~{fpsr},~{flags}"(i32 0) #4, !srcloc !6
  %2 = extractvalue { i32, i32 } %1, 0
  %3 = extractvalue { i32, i32 } %1, 1
  %4 = zext i32 %3 to i64
  %5 = shl nuw i64 %4, 32
  %6 = zext i32 %2 to i64
  %7 = or disjoint i64 %5, %6
  ret i64 %7
}